; Function Attrs: nounwind uwtable
define hidden void @lh_doall(ptr noundef captures(address_is_null) %0, ptr noundef readonly captures(none) %1) local_unnamed_addr #5 {
  %3 = icmp eq ptr %0, null
  br i1 %3, label %lh_doall_internal.exit, label %4

4:                                                ; preds = %2
  %5 = getelementptr inbounds nuw i8, ptr %0, i64 24
  %6 = load i32, ptr %5, align 8, !tbaa !31
  %.not.i = icmp eq i32 %6, -1
  br i1 %.not.i, label %9, label %7

7:                                                ; preds = %4
  %8 = add nuw i32 %6, 1
  store i32 %8, ptr %5, align 8, !tbaa !31
  br label %9

9:                                                ; preds = %7, %4
  %10 = phi i32 [ %8, %7 ], [ -1, %4 ]
  %11 = getelementptr inbounds nuw i8, ptr %0, i64 16
  %12 = load i64, ptr %11, align 8, !tbaa !6
  %.not33.i = icmp eq i64 %12, 0
  br i1 %.not33.i, label %._crit_edge32.i, label %.lr.ph31.i

.lr.ph31.i:                                       ; preds = %9
  %13 = getelementptr inbounds nuw i8, ptr %0, i64 8
  br label %.lr.ph31.split.us.i

.lr.ph31.split.us.i:                              ; preds = %._crit_edge.split.us.us.i, %.lr.ph31.i
  %14 = phi i64 [ %18, %._crit_edge.split.us.us.i ], [ %12, %.lr.ph31.i ]
  %.029.us.i = phi i64 [ %19, %._crit_edge.split.us.us.i ], [ 0, %.lr.ph31.i ]
  %15 = load ptr, ptr %13, align 8, !tbaa !14
  %16 = getelementptr inbounds nuw ptr, ptr %15, i64 %.029.us.i
  %17 = load ptr, ptr %16, align 8, !tbaa !20
  %.not2527.us.i = icmp eq ptr %17, null
  br i1 %.not2527.us.i, label %._crit_edge.split.us.us.i, label %.lr.ph.us.i

._crit_edge.split.us.us.loopexit.i:               ; preds = %.lr.ph.us.i
  %.pre35.i = load i64, ptr %11, align 8, !tbaa !6
  br label %._crit_edge.split.us.us.i

._crit_edge.split.us.us.i:                        ; preds = %._crit_edge.split.us.us.loopexit.i, %.lr.ph31.split.us.i
  %18 = phi i64 [ %.pre35.i, %._crit_edge.split.us.us.loopexit.i ], [ %14, %.lr.ph31.split.us.i ]
  %19 = add nuw i64 %.029.us.i, 1
  %20 = icmp ult i64 %19, %18
  br i1 %20, label %.lr.ph31.split.us.i, label %._crit_edge32.i.loopexit, !llvm.loop !34

.lr.ph.us.i:                                      ; preds = %.lr.ph31.split.us.i, %.lr.ph.us.i
  %.01928.us.us.i = phi ptr [ %22, %.lr.ph.us.i ], [ %17, %.lr.ph31.split.us.i ]
  %21 = getelementptr inbounds nuw i8, ptr %.01928.us.us.i, i64 8
  %22 = load ptr, ptr %21, align 8, !tbaa !22
  %23 = load ptr, ptr %.01928.us.us.i, align 8, !tbaa !27
  tail call void %1(ptr noundef %23) #9
  %.not25.us.us.i = icmp eq ptr %22, null
  br i1 %.not25.us.us.i, label %._crit_edge.split.us.us.loopexit.i, label %.lr.ph.us.i, !llvm.loop !35

._crit_edge32.i.loopexit:                         ; preds = %._crit_edge.split.us.us.i
  %.pre = load i32, ptr %5, align 8, !tbaa !31
  br label %._crit_edge32.i

._crit_edge32.i:                                  ; preds = %._crit_edge32.i.loopexit, %9
  %24 = phi i32 [ %.pre, %._crit_edge32.i.loopexit ], [ %10, %9 ]
  %.not24.i = icmp eq i32 %24, -1
  br i1 %.not24.i, label %27, label %25

25:                                               ; preds = %._crit_edge32.i
  %26 = add i32 %24, -1
  store i32 %26, ptr %5, align 8, !tbaa !31
  br label %27

27:                                               ; preds = %25, %._crit_edge32.i
  tail call fastcc void @lh_maybe_resize(ptr noundef nonnull %0)
  br label %lh_doall_internal.exit

lh_doall_internal.exit:                           ; preds = %2, %27
  ret void
}